target datalayout = "e-m:e-p270:32:32-p271:32:32-p272:64:64-i64:64-i128:128-f80:128-n8:16:32:64-S128"
target triple = "x86_64-pc-linux-gnu"

@.str.121 = private unnamed_addr constant [3 x i8] c"km\00", align 1
@.str.122 = private unnamed_addr constant [2 x i8] c"m\00", align 1
@.str.123 = private unnamed_addr constant [3 x i8] c"dm\00", align 1
@.str.124 = private unnamed_addr constant [3 x i8] c"cm\00", align 1
@.str.125 = private unnamed_addr constant [3 x i8] c"mm\00", align 1
@.str.126 = private unnamed_addr constant [3 x i8] c"um\00", align 1
@.str.127 = private unnamed_addr constant [3 x i8] c"nm\00", align 1
@.str.128 = private unnamed_addr constant [4 x i8] c"rad\00", align 1
@.str.129 = private unnamed_addr constant [4 x i8] c"deg\00", align 1

; Function Attrs: mustprogress nounwind uwtable
define internal noundef ptr @_ZL6columnPKci(ptr noundef %0, i32 noundef %1) #0 {
  %3 = alloca ptr, align 8
  %4 = alloca ptr, align 8
  %5 = alloca i32, align 4
  %6 = alloca i32, align 4
  store ptr %0, ptr %4, align 8
  store i32 %1, ptr %5, align 4
  %7 = load i32, ptr %5, align 4
  %8 = icmp sle i32 %7, 0
  br i1 %8, label %9, label %11

9:                                                ; preds = %2
  %10 = load ptr, ptr %4, align 8
  store ptr %10, ptr %3, align 8
  br label %56

11:                                               ; preds = %2
  store i32 0, ptr %6, align 4
  br label %12

12:                                               ; preds = %51, %11
  %13 = load i32, ptr %6, align 4
  %14 = load i32, ptr %5, align 4
  %15 = icmp slt i32 %13, %14
  br i1 %15, label %16, label %54

16:                                               ; preds = %12
  br label %17

17:                                               ; preds = %23, %16
  %18 = load ptr, ptr %4, align 8
  %19 = load i8, ptr %18, align 1
  %20 = sext i8 %19 to i32
  %21 = call i32 @isspace(i32 noundef %20) #14
  %22 = icmp ne i32 %21, 0
  br i1 %22, label %23, label %26

23:                                               ; preds = %17
  %24 = load ptr, ptr %4, align 8
  %25 = getelementptr inbounds i8, ptr %24, i32 1
  store ptr %25, ptr %4, align 8
  br label %17, !llvm.loop !31

26:                                               ; preds = %17
  %27 = load i32, ptr %6, align 4
  %28 = load i32, ptr %5, align 4
  %29 = sub nsw i32 %28, 1
  %30 = icmp eq i32 %27, %29
  br i1 %30, label %31, label %32

31:                                               ; preds = %26
  br label %54

32:                                               ; preds = %26
  br label %33

33:                                               ; preds = %47, %32
  %34 = load ptr, ptr %4, align 8
  %35 = load i8, ptr %34, align 1
  %36 = sext i8 %35 to i32
  %37 = icmp ne i32 0, %36
  br i1 %37, label %38, label %45

38:                                               ; preds = %33
  %39 = load ptr, ptr %4, align 8
  %40 = load i8, ptr %39, align 1
  %41 = sext i8 %40 to i32
  %42 = call i32 @isspace(i32 noundef %41) #14
  %43 = icmp ne i32 %42, 0
  %44 = xor i1 %43, true
  br label %45

45:                                               ; preds = %38, %33
  %46 = phi i1 [ false, %33 ], [ %44, %38 ]
  br i1 %46, label %47, label %50

47:                                               ; preds = %45
  %48 = load ptr, ptr %4, align 8
  %49 = getelementptr inbounds i8, ptr %48, i32 1
  store ptr %49, ptr %4, align 8
  br label %33, !llvm.loop !32

50:                                               ; preds = %45
  br label %51

51:                                               ; preds = %50
  %52 = load i32, ptr %6, align 4
  %53 = add nsw i32 %52, 1
  store i32 %53, ptr %6, align 4
  br label %12, !llvm.loop !33

54:                                               ; preds = %31, %12
  %55 = load ptr, ptr %4, align 8
  store ptr %55, ptr %3, align 8
  br label %56

56:                                               ; preds = %54, %9
  %57 = load ptr, ptr %3, align 8
  ret ptr %57
}

; Function Attrs: mustprogress uwtable
define internal noundef double @_ZL13strtod_scaledPKcd(ptr noundef %0, double noundef %1) #1 {
  %3 = alloca double, align 8
  %4 = alloca ptr, align 8
  %5 = alloca double, align 8
  %6 = alloca double, align 8
  %7 = alloca ptr, align 8
  %8 = alloca double, align 8
  %9 = alloca ptr, align 8
  store ptr %0, ptr %4, align 8
  store double %1, ptr %5, align 8
  store double 0x40FB2D77DA5119CE, ptr %6, align 8
  %10 = load ptr, ptr %4, align 8
  %11 = call noundef double @_Z11proj_strtodPKcPPc(ptr noundef %10, ptr noundef %7)
  store double %11, ptr %8, align 8
  %12 = load ptr, ptr %4, align 8
  %13 = load ptr, ptr %7, align 8
  %14 = icmp eq ptr %12, %13
  br i1 %14, label %15, label %16

15:                                               ; preds = %2
  store double 0x7FF0000000000000, ptr %3, align 8
  br label %96

16:                                               ; preds = %2
  %17 = load ptr, ptr %4, align 8
  %18 = call noundef ptr @_ZL6columnPKci(ptr noundef %17, i32 noundef 2)
  store ptr %18, ptr %9, align 8
  %19 = load ptr, ptr %9, align 8
  %20 = call i32 @strcmp(ptr noundef %19, ptr noundef @.str.121) #14
  %21 = icmp eq i32 0, %20
  br i1 %21, label %22, label %25

22:                                               ; preds = %16
  %23 = load double, ptr %8, align 8
  %24 = fmul double %23, 1.000000e+03
  store double %24, ptr %8, align 8
  br label %94

25:                                               ; preds = %16
  %26 = load ptr, ptr %9, align 8
  %27 = call i32 @strcmp(ptr noundef %26, ptr noundef @.str.122) #14
  %28 = icmp eq i32 0, %27
  br i1 %28, label %29, label %32

29:                                               ; preds = %25
  %30 = load double, ptr %8, align 8
  %31 = fmul double %30, 1.000000e+00
  store double %31, ptr %8, align 8
  br label %93

32:                                               ; preds = %25
  %33 = load ptr, ptr %9, align 8
  %34 = call i32 @strcmp(ptr noundef %33, ptr noundef @.str.123) #14
  %35 = icmp eq i32 0, %34
  br i1 %35, label %36, label %39

36:                                               ; preds = %32
  %37 = load double, ptr %8, align 8
  %38 = fdiv double %37, 1.000000e+01
  store double %38, ptr %8, align 8
  br label %92

39:                                               ; preds = %32
  %40 = load ptr, ptr %9, align 8
  %41 = call i32 @strcmp(ptr noundef %40, ptr noundef @.str.124) #14
  %42 = icmp eq i32 0, %41
  br i1 %42, label %43, label %46

43:                                               ; preds = %39
  %44 = load double, ptr %8, align 8
  %45 = fdiv double %44, 1.000000e+02
  store double %45, ptr %8, align 8
  br label %91

46:                                               ; preds = %39
  %47 = load ptr, ptr %9, align 8
  %48 = call i32 @strcmp(ptr noundef %47, ptr noundef @.str.125) #14
  %49 = icmp eq i32 0, %48
  br i1 %49, label %50, label %53

50:                                               ; preds = %46
  %51 = load double, ptr %8, align 8
  %52 = fdiv double %51, 1.000000e+03
  store double %52, ptr %8, align 8
  br label %90

53:                                               ; preds = %46
  %54 = load ptr, ptr %9, align 8
  %55 = call i32 @strcmp(ptr noundef %54, ptr noundef @.str.126) #14
  %56 = icmp eq i32 0, %55
  br i1 %56, label %57, label %60

57:                                               ; preds = %53
  %58 = load double, ptr %8, align 8
  %59 = fdiv double %58, 1.000000e+06
  store double %59, ptr %8, align 8
  br label %89

60:                                               ; preds = %53
  %61 = load ptr, ptr %9, align 8
  %62 = call i32 @strcmp(ptr noundef %61, ptr noundef @.str.127) #14
  %63 = icmp eq i32 0, %62
  br i1 %63, label %64, label %67

64:                                               ; preds = %60
  %65 = load double, ptr %8, align 8
  %66 = fdiv double %65, 1.000000e+09
  store double %66, ptr %8, align 8
  br label %88

67:                                               ; preds = %60
  %68 = load ptr, ptr %9, align 8
  %69 = call i32 @strcmp(ptr noundef %68, ptr noundef @.str.128) #14
  %70 = icmp eq i32 0, %69
  br i1 %70, label %71, label %75

71:                                               ; preds = %67
  %72 = load double, ptr %8, align 8
  %73 = call double @proj_todeg(double noundef %72)
  %74 = fmul double 0x40FB2D77DA5119CE, %73
  store double %74, ptr %8, align 8
  br label %87

75:                                               ; preds = %67
  %76 = load ptr, ptr %9, align 8
  %77 = call i32 @strcmp(ptr noundef %76, ptr noundef @.str.129) #14
  %78 = icmp eq i32 0, %77
  br i1 %78, label %79, label %82

79:                                               ; preds = %75
  %80 = load double, ptr %8, align 8
  %81 = fmul double 0x40FB2D77DA5119CE, %80
  store double %81, ptr %8, align 8
  br label %86

82:                                               ; preds = %75
  %83 = load double, ptr %5, align 8
  %84 = load double, ptr %8, align 8
  %85 = fmul double %84, %83
  store double %85, ptr %8, align 8
  br label %86

86:                                               ; preds = %82, %79
  br label %87

87:                                               ; preds = %86, %71
  br label %88

88:                                               ; preds = %87, %64
  br label %89

89:                                               ; preds = %88, %57
  br label %90

90:                                               ; preds = %89, %50
  br label %91

91:                                               ; preds = %90, %43
  br label %92

92:                                               ; preds = %91, %36
  br label %93

93:                                               ; preds = %92, %29
  br label %94

94:                                               ; preds = %93, %22
  %95 = load double, ptr %8, align 8
  store double %95, ptr %3, align 8
  br label %96

96:                                               ; preds = %94, %15
  %97 = load double, ptr %3, align 8
  ret double %97
}