; Function Attrs: mustprogress norecurse uwtable
define internal fastcc noundef double @_ZL13strtod_scaledPKcd(ptr noundef %0) unnamed_addr #10 {
  %2 = alloca ptr, align 8
  %3 = call noundef double @_Z11proj_strtodPKcPPc(ptr noundef %0, ptr noundef nonnull %2)
  %4 = load ptr, ptr %2, align 8
  %5 = icmp eq ptr %4, %0
  br i1 %5, label %63, label %.preheader19.i

.preheader19.i:                                   ; preds = %1, %.critedge.i
  %.025.i = phi i32 [ %19, %.critedge.i ], [ 0, %1 ]
  %.01424.i = phi ptr [ %.2.lcssa.i, %.critedge.i ], [ %0, %1 ]
  br label %6

6:                                                ; preds = %6, %.preheader19.i
  %.1.i = phi ptr [ %10, %6 ], [ %.01424.i, %.preheader19.i ]
  %7 = load i8, ptr %.1.i, align 1
  %8 = sext i8 %7 to i32
  %9 = call i32 @isspace(i32 noundef %8) #27
  %.not.i = icmp eq i32 %9, 0
  %10 = getelementptr inbounds i8, ptr %.1.i, i64 1
  br i1 %.not.i, label %11, label %6, !llvm.loop !24

11:                                               ; preds = %6
  %12 = icmp eq i32 %.025.i, 1
  br i1 %12, label %_ZL6columnPKci.exit, label %.preheader.i

.preheader.i:                                     ; preds = %11
  %.not1720.i = icmp eq i8 %7, 0
  br i1 %.not1720.i, label %.critedge.i, label %.lr.ph.i

.lr.ph.i:                                         ; preds = %.preheader.i, %16
  %13 = phi i8 [ %18, %16 ], [ %7, %.preheader.i ]
  %.221.i = phi ptr [ %17, %16 ], [ %.1.i, %.preheader.i ]
  %14 = sext i8 %13 to i32
  %15 = call i32 @isspace(i32 noundef %14) #27
  %.not18.i = icmp eq i32 %15, 0
  br i1 %.not18.i, label %16, label %.critedge.i

16:                                               ; preds = %.lr.ph.i
  %17 = getelementptr inbounds i8, ptr %.221.i, i64 1
  %18 = load i8, ptr %17, align 1
  %.not17.i = icmp eq i8 %18, 0
  br i1 %.not17.i, label %.critedge.i, label %.lr.ph.i, !llvm.loop !25

.critedge.i:                                      ; preds = %16, %.lr.ph.i, %.preheader.i
  %.2.lcssa.i = phi ptr [ %.1.i, %.preheader.i ], [ %17, %16 ], [ %.221.i, %.lr.ph.i ]
  %19 = add nuw nsw i32 %.025.i, 1
  br label %.preheader19.i

_ZL6columnPKci.exit:                              ; preds = %11
  %20 = call i32 @strcmp(ptr noundef nonnull dereferenceable(1) %.1.i, ptr noundef nonnull dereferenceable(3) @.str.121) #27
  %21 = icmp eq i32 %20, 0
  br i1 %21, label %22, label %24

22:                                               ; preds = %_ZL6columnPKci.exit
  %23 = fmul double %3, 1.000000e+03
  br label %63

24:                                               ; preds = %_ZL6columnPKci.exit
  %25 = call i32 @strcmp(ptr noundef nonnull dereferenceable(1) %.1.i, ptr noundef nonnull dereferenceable(2) @.str.122) #27
  %26 = icmp eq i32 %25, 0
  br i1 %26, label %63, label %27

27:                                               ; preds = %24
  %28 = call i32 @strcmp(ptr noundef nonnull dereferenceable(1) %.1.i, ptr noundef nonnull dereferenceable(3) @.str.123) #27
  %29 = icmp eq i32 %28, 0
  br i1 %29, label %30, label %32

30:                                               ; preds = %27
  %31 = fdiv double %3, 1.000000e+01
  br label %63

32:                                               ; preds = %27
  %33 = call i32 @strcmp(ptr noundef nonnull dereferenceable(1) %.1.i, ptr noundef nonnull dereferenceable(3) @.str.124) #27
  %34 = icmp eq i32 %33, 0
  br i1 %34, label %35, label %37

35:                                               ; preds = %32
  %36 = fdiv double %3, 1.000000e+02
  br label %63

37:                                               ; preds = %32
  %38 = call i32 @strcmp(ptr noundef nonnull dereferenceable(1) %.1.i, ptr noundef nonnull dereferenceable(3) @.str.125) #27
  %39 = icmp eq i32 %38, 0
  br i1 %39, label %40, label %42

40:                                               ; preds = %37
  %41 = fdiv double %3, 1.000000e+03
  br label %63

42:                                               ; preds = %37
  %43 = call i32 @strcmp(ptr noundef nonnull dereferenceable(1) %.1.i, ptr noundef nonnull dereferenceable(3) @.str.126) #27
  %44 = icmp eq i32 %43, 0
  br i1 %44, label %45, label %47

45:                                               ; preds = %42
  %46 = fdiv double %3, 1.000000e+06
  br label %63

47:                                               ; preds = %42
  %48 = call i32 @strcmp(ptr noundef nonnull dereferenceable(1) %.1.i, ptr noundef nonnull dereferenceable(3) @.str.127) #27
  %49 = icmp eq i32 %48, 0
  br i1 %49, label %50, label %52

50:                                               ; preds = %47
  %51 = fdiv double %3, 1.000000e+09
  br label %63

52:                                               ; preds = %47
  %53 = call i32 @strcmp(ptr noundef nonnull dereferenceable(1) %.1.i, ptr noundef nonnull dereferenceable(4) @.str.128) #27
  %54 = icmp eq i32 %53, 0
  br i1 %54, label %55, label %58

55:                                               ; preds = %52
  %56 = call double @proj_todeg(double noundef %3)
  %57 = fmul double %56, 0x40FB2D77DA5119CE
  br label %63

58:                                               ; preds = %52
  %59 = call i32 @strcmp(ptr noundef nonnull dereferenceable(1) %.1.i, ptr noundef nonnull dereferenceable(4) @.str.129) #27
  %60 = icmp eq i32 %59, 0
  br i1 %60, label %61, label %63

61:                                               ; preds = %58
  %62 = fmul double %3, 0x40FB2D77DA5119CE
  br label %63

63:                                               ; preds = %22, %30, %40, %50, %61, %55, %45, %35, %24, %58, %1
  %.0 = phi double [ 0x7FF0000000000000, %1 ], [ %23, %22 ], [ %31, %30 ], [ %36, %35 ], [ %41, %40 ], [ %46, %45 ], [ %51, %50 ], [ %57, %55 ], [ %62, %61 ], [ %3, %24 ], [ %3, %58 ]
  ret double %.0
}